target datalayout = "e-m:e-p270:32:32-p271:32:32-p272:64:64-i64:64-i128:128-f80:128-n8:16:32:64-S128"
target triple = "x86_64-pc-linux-gnu"

%struct._packet_info = type { ptr, ptr, i32, i32, %struct.nstime_t, %struct.nstime_t, %struct.nstime_t, i8, ptr, ptr, ptr, ptr, %struct._address, %struct._address, %struct._address, %struct._address, %struct._address, %struct._address, i32, ptr, i8, [3 x i8], %struct.anon, i32, i32, i32, i32, ptr, i8, ptr, ptr, i16, i16, i32, i32, i16, i32, i32, ptr, ptr, ptr, i8, i8, i16, i16, i16, i32, i16, i16, ptr, ptr, ptr, ptr, ptr, i32, i32 }
%struct.nstime_t = type { i64, i32 }
%struct._address = type { i32, i32, ptr, ptr }
%struct.anon = type { i8, [3 x i8] }

@ett_dvb_ait = internal global i32 0, align 4
@ett_dvb_ait_app = internal global i32 0, align 4
@hf_dvb_ait_test_app_flag = internal global i32 0, align 4
@hf_dvb_ait_app_type = internal global i32 0, align 4
@hf_dvb_ait_version_number = internal global i32 0, align 4
@hf_dvb_ait_current_next_indicator = internal global i32 0, align 4
@hf_dvb_ait_section_number = internal global i32 0, align 4
@hf_dvb_ait_last_section_number = internal global i32 0, align 4
@hf_dvb_ait_descr_loop_len = internal global i32 0, align 4
@hf_dvb_ait_app_loop_len = internal global i32 0, align 4
@hf_dvb_ait_org_id = internal global i32 0, align 4
@hf_dvb_ait_app_id = internal global i32 0, align 4
@hf_dvb_ait_app_ctrl_code = internal global i32 0, align 4
@proto_dvb_ait = internal global i32 0, align 4
@.str.101 = private unnamed_addr constant [36 x i8] c"Application Information Table (AIT)\00", align 1
@.str.102 = private unnamed_addr constant [32 x i8] c"Application: Org 0x%x, App 0x%x\00", align 1

; Function Attrs: null_pointer_is_valid sspstrong uwtable
define internal i32 @dissect_dvb_ait(ptr noundef %0, ptr noundef %1, ptr noundef %2, ptr noundef %3) #0 {
  %5 = alloca ptr, align 8
  %6 = alloca ptr, align 8
  %7 = alloca ptr, align 8
  %8 = alloca ptr, align 8
  %9 = alloca i32, align 4
  %10 = alloca ptr, align 8
  %11 = alloca ptr, align 8
  %12 = alloca ptr, align 8
  %13 = alloca ptr, align 8
  %14 = alloca i32, align 4
  %15 = alloca i32, align 4
  %16 = alloca i32, align 4
  %17 = alloca i16, align 2
  %18 = alloca i16, align 2
  %19 = alloca i32, align 4
  %20 = alloca i32, align 4
  %21 = alloca i16, align 2
  store ptr %0, ptr %5, align 8
  store ptr %1, ptr %6, align 8
  store ptr %2, ptr %7, align 8
  store ptr %3, ptr %8, align 8
  call void @llvm.lifetime.start.p0(i64 4, ptr %9) #3
  store i32 0, ptr %9, align 4
  call void @llvm.lifetime.start.p0(i64 8, ptr %10) #3
  store ptr null, ptr %10, align 8
  call void @llvm.lifetime.start.p0(i64 8, ptr %11) #3
  store ptr null, ptr %11, align 8
  call void @llvm.lifetime.start.p0(i64 8, ptr %12) #3
  store ptr null, ptr %12, align 8
  call void @llvm.lifetime.start.p0(i64 8, ptr %13) #3
  store ptr null, ptr %13, align 8
  call void @llvm.lifetime.start.p0(i64 4, ptr %14) #3
  call void @llvm.lifetime.start.p0(i64 4, ptr %15) #3
  call void @llvm.lifetime.start.p0(i64 4, ptr %16) #3
  call void @llvm.lifetime.start.p0(i64 2, ptr %17) #3
  call void @llvm.lifetime.start.p0(i64 2, ptr %18) #3
  call void @llvm.lifetime.start.p0(i64 4, ptr %19) #3
  call void @llvm.lifetime.start.p0(i64 4, ptr %20) #3
  call void @llvm.lifetime.start.p0(i64 2, ptr %21) #3
  %22 = load ptr, ptr %6, align 8
  %23 = getelementptr inbounds nuw %struct._packet_info, ptr %22, i32 0, i32 1
  %24 = load ptr, ptr %23, align 8
  call void @col_set_str(ptr noundef %24, i32 noundef 25, ptr noundef @.str.101)
  %25 = load ptr, ptr %7, align 8
  %26 = icmp ne ptr %25, null
  br i1 %26, label %27, label %35

27:                                               ; preds = %4
  %28 = load ptr, ptr %7, align 8
  %29 = load i32, ptr @proto_dvb_ait, align 4
  %30 = load ptr, ptr %5, align 8
  %31 = call ptr (ptr, i32, ptr, i32, i32, ptr, ...) @proto_tree_add_protocol_format(ptr noundef %28, i32 noundef %29, ptr noundef %30, i32 noundef 0, i32 noundef -1, ptr noundef @.str.101)
  store ptr %31, ptr %10, align 8
  %32 = load ptr, ptr %10, align 8
  %33 = load i32, ptr @ett_dvb_ait, align 4
  %34 = call ptr @proto_item_add_subtree(ptr noundef %32, i32 noundef %33)
  store ptr %34, ptr %12, align 8
  br label %35

35:                                               ; preds = %27, %4
  %36 = load ptr, ptr %5, align 8
  %37 = load i32, ptr %9, align 4
  %38 = load ptr, ptr %12, align 8
  %39 = call i32 @packet_mpeg_sect_header(ptr noundef %36, i32 noundef %37, ptr noundef %38, ptr noundef null, ptr noundef null)
  %40 = load i32, ptr %9, align 4
  %41 = add i32 %40, %39
  store i32 %41, ptr %9, align 4
  %42 = load ptr, ptr %12, align 8
  %43 = load i32, ptr @hf_dvb_ait_test_app_flag, align 4
  %44 = load ptr, ptr %5, align 8
  %45 = load i32, ptr %9, align 4
  %46 = call ptr @proto_tree_add_item(ptr noundef %42, i32 noundef %43, ptr noundef %44, i32 noundef %45, i32 noundef 1, i32 noundef 0)
  %47 = load ptr, ptr %12, align 8
  %48 = load i32, ptr @hf_dvb_ait_app_type, align 4
  %49 = load ptr, ptr %5, align 8
  %50 = load i32, ptr %9, align 4
  %51 = call ptr @proto_tree_add_item(ptr noundef %47, i32 noundef %48, ptr noundef %49, i32 noundef %50, i32 noundef 2, i32 noundef 0)
  %52 = load i32, ptr %9, align 4
  %53 = add i32 %52, 2
  store i32 %53, ptr %9, align 4
  %54 = load ptr, ptr %12, align 8
  %55 = load i32, ptr @hf_dvb_ait_version_number, align 4
  %56 = load ptr, ptr %5, align 8
  %57 = load i32, ptr %9, align 4
  %58 = call ptr @proto_tree_add_item(ptr noundef %54, i32 noundef %55, ptr noundef %56, i32 noundef %57, i32 noundef 1, i32 noundef 0)
  %59 = load ptr, ptr %12, align 8
  %60 = load i32, ptr @hf_dvb_ait_current_next_indicator, align 4
  %61 = load ptr, ptr %5, align 8
  %62 = load i32, ptr %9, align 4
  %63 = call ptr @proto_tree_add_item(ptr noundef %59, i32 noundef %60, ptr noundef %61, i32 noundef %62, i32 noundef 1, i32 noundef 0)
  %64 = load i32, ptr %9, align 4
  %65 = add i32 %64, 1
  store i32 %65, ptr %9, align 4
  %66 = load ptr, ptr %12, align 8
  %67 = load i32, ptr @hf_dvb_ait_section_number, align 4
  %68 = load ptr, ptr %5, align 8
  %69 = load i32, ptr %9, align 4
  %70 = call ptr @proto_tree_add_item(ptr noundef %66, i32 noundef %67, ptr noundef %68, i32 noundef %69, i32 noundef 1, i32 noundef 0)
  %71 = load i32, ptr %9, align 4
  %72 = add i32 %71, 1
  store i32 %72, ptr %9, align 4
  %73 = load ptr, ptr %12, align 8
  %74 = load i32, ptr @hf_dvb_ait_last_section_number, align 4
  %75 = load ptr, ptr %5, align 8
  %76 = load i32, ptr %9, align 4
  %77 = call ptr @proto_tree_add_item(ptr noundef %73, i32 noundef %74, ptr noundef %75, i32 noundef %76, i32 noundef 1, i32 noundef 0)
  %78 = load i32, ptr %9, align 4
  %79 = add i32 %78, 1
  store i32 %79, ptr %9, align 4
  %80 = load ptr, ptr %5, align 8
  %81 = load i32, ptr %9, align 4
  %82 = call zeroext i16 @tvb_get_ntohs(ptr noundef %80, i32 noundef %81)
  %83 = zext i16 %82 to i32
  %84 = and i32 %83, 4095
  %85 = trunc i32 %84 to i16
  store i16 %85, ptr %17, align 2
  %86 = load ptr, ptr %12, align 8
  %87 = load i32, ptr @hf_dvb_ait_descr_loop_len, align 4
  %88 = load ptr, ptr %5, align 8
  %89 = load i32, ptr %9, align 4
  %90 = call ptr @proto_tree_add_item(ptr noundef %86, i32 noundef %87, ptr noundef %88, i32 noundef %89, i32 noundef 2, i32 noundef 0)
  %91 = load i32, ptr %9, align 4
  %92 = add i32 %91, 2
  store i32 %92, ptr %9, align 4
  %93 = load i32, ptr %9, align 4
  store i32 %93, ptr %14, align 4
  br label %94

94:                                               ; preds = %110, %35
  %95 = load i32, ptr %9, align 4
  %96 = load i32, ptr %14, align 4
  %97 = sub i32 %95, %96
  %98 = load i16, ptr %17, align 2
  %99 = zext i16 %98 to i32
  %100 = icmp slt i32 %97, %99
  br i1 %100, label %101, label %114

101:                                              ; preds = %94
  %102 = load ptr, ptr %5, align 8
  %103 = load i32, ptr %9, align 4
  %104 = load ptr, ptr %6, align 8
  %105 = load ptr, ptr %12, align 8
  %106 = call i32 @dissect_dvb_ait_descriptor(ptr noundef %102, i32 noundef %103, ptr noundef %104, ptr noundef %105)
  store i32 %106, ptr %19, align 4
  %107 = load i32, ptr %19, align 4
  %108 = icmp sle i32 %107, 0
  br i1 %108, label %109, label %110

109:                                              ; preds = %101
  br label %114

110:                                              ; preds = %101
  %111 = load i32, ptr %19, align 4
  %112 = load i32, ptr %9, align 4
  %113 = add i32 %112, %111
  store i32 %113, ptr %9, align 4
  br label %94, !llvm.loop !6

114:                                              ; preds = %109, %94
  %115 = load ptr, ptr %5, align 8
  %116 = load i32, ptr %9, align 4
  %117 = call zeroext i16 @tvb_get_ntohs(ptr noundef %115, i32 noundef %116)
  %118 = zext i16 %117 to i32
  %119 = and i32 %118, 4095
  %120 = trunc i32 %119 to i16
  store i16 %120, ptr %18, align 2
  %121 = load ptr, ptr %12, align 8
  %122 = load i32, ptr @hf_dvb_ait_app_loop_len, align 4
  %123 = load ptr, ptr %5, align 8
  %124 = load i32, ptr %9, align 4
  %125 = call ptr @proto_tree_add_item(ptr noundef %121, i32 noundef %122, ptr noundef %123, i32 noundef %124, i32 noundef 2, i32 noundef 0)
  %126 = load i32, ptr %9, align 4
  %127 = add i32 %126, 2
  store i32 %127, ptr %9, align 4
  %128 = load i32, ptr %9, align 4
  store i32 %128, ptr %14, align 4
  br label %129

129:                                              ; preds = %208, %114
  %130 = load i32, ptr %9, align 4
  %131 = load i32, ptr %14, align 4
  %132 = sub i32 %130, %131
  %133 = load i16, ptr %18, align 2
  %134 = zext i16 %133 to i32
  %135 = icmp slt i32 %132, %134
  br i1 %135, label %136, label %213

136:                                              ; preds = %129
  %137 = load i32, ptr %9, align 4
  store i32 %137, ptr %16, align 4
  %138 = load ptr, ptr %5, align 8
  %139 = load i32, ptr %9, align 4
  %140 = call i32 @tvb_get_ntohl(ptr noundef %138, i32 noundef %139)
  store i32 %140, ptr %20, align 4
  %141 = load ptr, ptr %5, align 8
  %142 = load i32, ptr %9, align 4
  %143 = add i32 %142, 4
  %144 = call zeroext i16 @tvb_get_ntohs(ptr noundef %141, i32 noundef %143)
  store i16 %144, ptr %21, align 2
  %145 = load ptr, ptr %12, align 8
  %146 = load ptr, ptr %5, align 8
  %147 = load i32, ptr %9, align 4
  %148 = load i32, ptr @ett_dvb_ait_app, align 4
  %149 = load i32, ptr %20, align 4
  %150 = load i16, ptr %21, align 2
  %151 = zext i16 %150 to i32
  %152 = call ptr (ptr, ptr, i32, i32, i32, ptr, ptr, ...) @proto_tree_add_subtree_format(ptr noundef %145, ptr noundef %146, i32 noundef %147, i32 noundef -1, i32 noundef %148, ptr noundef %11, ptr noundef @.str.102, i32 noundef %149, i32 noundef %151)
  store ptr %152, ptr %13, align 8
  %153 = load ptr, ptr %13, align 8
  %154 = load i32, ptr @hf_dvb_ait_org_id, align 4
  %155 = load ptr, ptr %5, align 8
  %156 = load i32, ptr %9, align 4
  %157 = call ptr @proto_tree_add_item(ptr noundef %153, i32 noundef %154, ptr noundef %155, i32 noundef %156, i32 noundef 4, i32 noundef 0)
  %158 = load i32, ptr %9, align 4
  %159 = add i32 %158, 4
  store i32 %159, ptr %9, align 4
  %160 = load ptr, ptr %13, align 8
  %161 = load i32, ptr @hf_dvb_ait_app_id, align 4
  %162 = load ptr, ptr %5, align 8
  %163 = load i32, ptr %9, align 4
  %164 = call ptr @proto_tree_add_item(ptr noundef %160, i32 noundef %161, ptr noundef %162, i32 noundef %163, i32 noundef 2, i32 noundef 0)
  %165 = load i32, ptr %9, align 4
  %166 = add i32 %165, 2
  store i32 %166, ptr %9, align 4
  %167 = load ptr, ptr %13, align 8
  %168 = load i32, ptr @hf_dvb_ait_app_ctrl_code, align 4
  %169 = load ptr, ptr %5, align 8
  %170 = load i32, ptr %9, align 4
  %171 = call ptr @proto_tree_add_item(ptr noundef %167, i32 noundef %168, ptr noundef %169, i32 noundef %170, i32 noundef 1, i32 noundef 0)
  %172 = load i32, ptr %9, align 4
  %173 = add i32 %172, 1
  store i32 %173, ptr %9, align 4
  %174 = load ptr, ptr %5, align 8
  %175 = load i32, ptr %9, align 4
  %176 = call zeroext i16 @tvb_get_ntohs(ptr noundef %174, i32 noundef %175)
  %177 = zext i16 %176 to i32
  %178 = and i32 %177, 4095
  %179 = trunc i32 %178 to i16
  store i16 %179, ptr %17, align 2
  %180 = load ptr, ptr %13, align 8
  %181 = load i32, ptr @hf_dvb_ait_descr_loop_len, align 4
  %182 = load ptr, ptr %5, align 8
  %183 = load i32, ptr %9, align 4
  %184 = call ptr @proto_tree_add_item(ptr noundef %180, i32 noundef %181, ptr noundef %182, i32 noundef %183, i32 noundef 2, i32 noundef 0)
  %185 = load i32, ptr %9, align 4
  %186 = add i32 %185, 2
  store i32 %186, ptr %9, align 4
  %187 = load i32, ptr %9, align 4
  store i32 %187, ptr %15, align 4
  br label %188

188:                                              ; preds = %204, %136
  %189 = load i32, ptr %9, align 4
  %190 = load i32, ptr %15, align 4
  %191 = sub i32 %189, %190
  %192 = load i16, ptr %17, align 2
  %193 = zext i16 %192 to i32
  %194 = icmp slt i32 %191, %193
  br i1 %194, label %195, label %208

195:                                              ; preds = %188
  %196 = load ptr, ptr %5, align 8
  %197 = load i32, ptr %9, align 4
  %198 = load ptr, ptr %6, align 8
  %199 = load ptr, ptr %13, align 8
  %200 = call i32 @dissect_dvb_ait_descriptor(ptr noundef %196, i32 noundef %197, ptr noundef %198, ptr noundef %199)
  store i32 %200, ptr %19, align 4
  %201 = load i32, ptr %19, align 4
  %202 = icmp sle i32 %201, 0
  br i1 %202, label %203, label %204

203:                                              ; preds = %195
  br label %208

204:                                              ; preds = %195
  %205 = load i32, ptr %19, align 4
  %206 = load i32, ptr %9, align 4
  %207 = add i32 %206, %205
  store i32 %207, ptr %9, align 4
  br label %188, !llvm.loop !8

208:                                              ; preds = %203, %188
  %209 = load ptr, ptr %11, align 8
  %210 = load i32, ptr %9, align 4
  %211 = load i32, ptr %16, align 4
  %212 = sub i32 %210, %211
  call void @proto_item_set_len(ptr noundef %209, i32 noundef %212)
  br label %129, !llvm.loop !9

213:                                              ; preds = %129
  %214 = load ptr, ptr %5, align 8
  %215 = load ptr, ptr %6, align 8
  %216 = load ptr, ptr %12, align 8
  %217 = load i32, ptr %9, align 4
  %218 = call i32 @packet_mpeg_sect_crc(ptr noundef %214, ptr noundef %215, ptr noundef %216, i32 noundef 0, i32 noundef %217)
  %219 = load i32, ptr %9, align 4
  %220 = add i32 %219, %218
  store i32 %220, ptr %9, align 4
  %221 = load ptr, ptr %10, align 8
  %222 = load i32, ptr %9, align 4
  call void @proto_item_set_len(ptr noundef %221, i32 noundef %222)
  %223 = load i32, ptr %9, align 4
  call void @llvm.lifetime.end.p0(i64 2, ptr %21) #3
  call void @llvm.lifetime.end.p0(i64 4, ptr %20) #3
  call void @llvm.lifetime.end.p0(i64 4, ptr %19) #3
  call void @llvm.lifetime.end.p0(i64 2, ptr %18) #3
  call void @llvm.lifetime.end.p0(i64 2, ptr %17) #3
  call void @llvm.lifetime.end.p0(i64 4, ptr %16) #3
  call void @llvm.lifetime.end.p0(i64 4, ptr %15) #3
  call void @llvm.lifetime.end.p0(i64 4, ptr %14) #3
  call void @llvm.lifetime.end.p0(i64 8, ptr %13) #3
  call void @llvm.lifetime.end.p0(i64 8, ptr %12) #3
  call void @llvm.lifetime.end.p0(i64 8, ptr %11) #3
  call void @llvm.lifetime.end.p0(i64 8, ptr %10) #3
  call void @llvm.lifetime.end.p0(i64 4, ptr %9) #3
  ret i32 %223
}