; Function Attrs: null_pointer_is_valid sspstrong uwtable
define internal noundef i32 @dissect_dvb_ait(ptr noundef %0, ptr noundef %1, ptr noundef %2, ptr readnone captures(none) %3) #0 {
  %5 = alloca ptr, align 8
  call void @llvm.lifetime.start.p0(i64 8, ptr nonnull %5) #4
  store ptr null, ptr %5, align 8
  %6 = getelementptr inbounds nuw i8, ptr %1, i64 8
  %7 = load ptr, ptr %6, align 8
  tail call void @col_set_str(ptr noundef %7, i32 noundef 25, ptr noundef nonnull @.str.101)
  %.not = icmp eq ptr %2, null
  br i1 %.not, label %13, label %8

8:                                                ; preds = %4
  %9 = load i32, ptr @proto_dvb_ait, align 4
  %10 = tail call ptr (ptr, i32, ptr, i32, i32, ptr, ...) @proto_tree_add_protocol_format(ptr noundef nonnull %2, i32 noundef %9, ptr noundef %0, i32 noundef 0, i32 noundef -1, ptr noundef nonnull @.str.101)
  %11 = load i32, ptr @ett_dvb_ait, align 4
  %12 = tail call ptr @proto_item_add_subtree(ptr noundef %10, i32 noundef %11)
  br label %13

13:                                               ; preds = %8, %4
  %.0107 = phi ptr [ %12, %8 ], [ null, %4 ]
  %.0106 = phi ptr [ %10, %8 ], [ null, %4 ]
  %14 = tail call i32 @packet_mpeg_sect_header(ptr noundef %0, i32 noundef 0, ptr noundef %.0107, ptr noundef null, ptr noundef null)
  %15 = load i32, ptr @hf_dvb_ait_test_app_flag, align 4
  %16 = tail call ptr @proto_tree_add_item(ptr noundef %.0107, i32 noundef %15, ptr noundef %0, i32 noundef %14, i32 noundef 1, i32 noundef 0)
  %17 = load i32, ptr @hf_dvb_ait_app_type, align 4
  %18 = tail call ptr @proto_tree_add_item(ptr noundef %.0107, i32 noundef %17, ptr noundef %0, i32 noundef %14, i32 noundef 2, i32 noundef 0)
  %19 = add i32 %14, 2
  %20 = load i32, ptr @hf_dvb_ait_version_number, align 4
  %21 = tail call ptr @proto_tree_add_item(ptr noundef %.0107, i32 noundef %20, ptr noundef %0, i32 noundef %19, i32 noundef 1, i32 noundef 0)
  %22 = load i32, ptr @hf_dvb_ait_current_next_indicator, align 4
  %23 = tail call ptr @proto_tree_add_item(ptr noundef %.0107, i32 noundef %22, ptr noundef %0, i32 noundef %19, i32 noundef 1, i32 noundef 0)
  %24 = add i32 %14, 3
  %25 = load i32, ptr @hf_dvb_ait_section_number, align 4
  %26 = tail call ptr @proto_tree_add_item(ptr noundef %.0107, i32 noundef %25, ptr noundef %0, i32 noundef %24, i32 noundef 1, i32 noundef 0)
  %27 = add i32 %14, 4
  %28 = load i32, ptr @hf_dvb_ait_last_section_number, align 4
  %29 = tail call ptr @proto_tree_add_item(ptr noundef %.0107, i32 noundef %28, ptr noundef %0, i32 noundef %27, i32 noundef 1, i32 noundef 0)
  %30 = add i32 %14, 5
  %31 = tail call zeroext i16 @tvb_get_ntohs(ptr noundef %0, i32 noundef %30)
  %32 = and i16 %31, 4095
  %33 = load i32, ptr @hf_dvb_ait_descr_loop_len, align 4
  %34 = tail call ptr @proto_tree_add_item(ptr noundef %.0107, i32 noundef %33, ptr noundef %0, i32 noundef %30, i32 noundef 2, i32 noundef 0)
  %35 = add i32 %14, 7
  %36 = zext nneg i16 %32 to i32
  %.not126 = icmp eq i16 %32, 0
  br i1 %.not126, label %._crit_edge, label %.lr.ph

37:                                               ; preds = %.lr.ph
  %38 = add i32 %41, %.0111
  %39 = sub i32 %38, %35
  %40 = icmp slt i32 %39, %36
  br i1 %40, label %.lr.ph, label %._crit_edge, !llvm.loop !6

.lr.ph:                                           ; preds = %13, %37
  %.0111 = phi i32 [ %38, %37 ], [ %35, %13 ]
  %41 = tail call fastcc i32 @dissect_dvb_ait_descriptor(ptr noundef %0, i32 noundef %.0111, ptr noundef %.0107)
  %42 = icmp slt i32 %41, 1
  br i1 %42, label %._crit_edge, label %37

._crit_edge:                                      ; preds = %37, %.lr.ph, %13
  %.0.lcssa = phi i32 [ %35, %13 ], [ %.0111, %.lr.ph ], [ %38, %37 ]
  %43 = tail call zeroext i16 @tvb_get_ntohs(ptr noundef %0, i32 noundef %.0.lcssa)
  %44 = and i16 %43, 4095
  %45 = load i32, ptr @hf_dvb_ait_app_loop_len, align 4
  %46 = tail call ptr @proto_tree_add_item(ptr noundef %.0107, i32 noundef %45, ptr noundef %0, i32 noundef %.0.lcssa, i32 noundef 2, i32 noundef 0)
  %47 = add i32 %.0.lcssa, 2
  %48 = zext nneg i16 %44 to i32
  %.not127 = icmp eq i16 %44, 0
  br i1 %.not127, label %._crit_edge124, label %.lr.ph123

.lr.ph123:                                        ; preds = %._crit_edge, %._crit_edge117
  %.1121 = phi i32 [ %.2.lcssa, %._crit_edge117 ], [ %47, %._crit_edge ]
  %49 = call i32 @tvb_get_ntohl(ptr noundef %0, i32 noundef %.1121)
  %50 = add i32 %.1121, 4
  %51 = call zeroext i16 @tvb_get_ntohs(ptr noundef %0, i32 noundef %50)
  %52 = load i32, ptr @ett_dvb_ait_app, align 4
  %53 = zext i16 %51 to i32
  %54 = call ptr (ptr, ptr, i32, i32, i32, ptr, ptr, ...) @proto_tree_add_subtree_format(ptr noundef %.0107, ptr noundef %0, i32 noundef %.1121, i32 noundef -1, i32 noundef %52, ptr noundef nonnull %5, ptr noundef nonnull @.str.102, i32 noundef %49, i32 noundef %53)
  %55 = load i32, ptr @hf_dvb_ait_org_id, align 4
  %56 = call ptr @proto_tree_add_item(ptr noundef %54, i32 noundef %55, ptr noundef %0, i32 noundef %.1121, i32 noundef 4, i32 noundef 0)
  %57 = load i32, ptr @hf_dvb_ait_app_id, align 4
  %58 = call ptr @proto_tree_add_item(ptr noundef %54, i32 noundef %57, ptr noundef %0, i32 noundef %50, i32 noundef 2, i32 noundef 0)
  %59 = add i32 %.1121, 6
  %60 = load i32, ptr @hf_dvb_ait_app_ctrl_code, align 4
  %61 = call ptr @proto_tree_add_item(ptr noundef %54, i32 noundef %60, ptr noundef %0, i32 noundef %59, i32 noundef 1, i32 noundef 0)
  %62 = add i32 %.1121, 7
  %63 = call zeroext i16 @tvb_get_ntohs(ptr noundef %0, i32 noundef %62)
  %64 = and i16 %63, 4095
  %65 = load i32, ptr @hf_dvb_ait_descr_loop_len, align 4
  %66 = call ptr @proto_tree_add_item(ptr noundef %54, i32 noundef %65, ptr noundef %0, i32 noundef %62, i32 noundef 2, i32 noundef 0)
  %67 = add i32 %.1121, 9
  %68 = zext nneg i16 %64 to i32
  %.not128 = icmp eq i16 %64, 0
  br i1 %.not128, label %._crit_edge117, label %.lr.ph116

69:                                               ; preds = %.lr.ph116
  %70 = add i32 %73, %.2114
  %71 = sub i32 %70, %67
  %72 = icmp slt i32 %71, %68
  br i1 %72, label %.lr.ph116, label %._crit_edge117, !llvm.loop !8

.lr.ph116:                                        ; preds = %.lr.ph123, %69
  %.2114 = phi i32 [ %70, %69 ], [ %67, %.lr.ph123 ]
  %73 = call fastcc i32 @dissect_dvb_ait_descriptor(ptr noundef %0, i32 noundef %.2114, ptr noundef %54)
  %74 = icmp slt i32 %73, 1
  br i1 %74, label %._crit_edge117, label %69

._crit_edge117:                                   ; preds = %69, %.lr.ph116, %.lr.ph123
  %.2.lcssa = phi i32 [ %67, %.lr.ph123 ], [ %.2114, %.lr.ph116 ], [ %70, %69 ]
  %75 = load ptr, ptr %5, align 8
  %76 = sub i32 %.2.lcssa, %.1121
  call void @proto_item_set_len(ptr noundef %75, i32 noundef %76)
  %77 = sub i32 %.2.lcssa, %47
  %78 = icmp slt i32 %77, %48
  br i1 %78, label %.lr.ph123, label %._crit_edge124, !llvm.loop !9

._crit_edge124:                                   ; preds = %._crit_edge117, %._crit_edge
  %.1.lcssa = phi i32 [ %47, %._crit_edge ], [ %.2.lcssa, %._crit_edge117 ]
  %79 = call i32 @packet_mpeg_sect_crc(ptr noundef %0, ptr noundef %1, ptr noundef %.0107, i32 noundef 0, i32 noundef %.1.lcssa)
  %80 = add i32 %79, %.1.lcssa
  call void @proto_item_set_len(ptr noundef %.0106, i32 noundef %80)
  call void @llvm.lifetime.end.p0(i64 8, ptr nonnull %5) #4
  ret i32 %80
}